#include <math.h>
#include <stdio.h>
#include <stdlib.h>
#include <string.h>
#define LEN 100
#define ASCII 100
#define MAX_N 100
#define MAX_M 100
#define MAX 100
#define ASC 100
#define null 0
#define Len 100
#define SUM 100
#define NUMBER 100
#define SIZE 100
#define MAXN 100
#define MAXSIZE 100
#define maxrow 100
#define maxcol 100
#define mx 100
#define NUM 100
#define ROW 100
#define COL 100
#define SIZEE 100
#define MAX_LEN 100
#define LIU 100
#define maxsize 100
#define NUM 100
#define NO 100
#define Null 0
#define ID_DIGITS 100
#define INT_MAX 100
#define INT_MIN 100
#define FALSE 0
#define TRUE 1
#define hang 100
#define lie 100
#define lll 100
#define LEM 100
#define K 100
#define INF 100
#define MONTH 12
#define true 1
#define PI 100
#define maxlen 100
#define maxinputint 100
#define STUDENT_NUM 100
#define length 100
#define TOTAL 100
#define LEN1 100
#define student_num 100
#define MAXLEN 100
#define MAXL 100
#define nMax 100
#define Vocabularysize 100
#define Sentencelength 100
char res[nMax];
char map[nMax][nMax];
char src[nMax];
char dst[nMax];


int main (){
    
    gets(res);
    //res[strlen(res)-1]='\0';
    int i,j,k;
    for(i=0,j=0,k=0;i<strlen(res);i++){
        if(res[i]==' '){
            j=0;
            k++;
        }else{
            map[k][j]=res[i];
            j++;
        }
    }
    map[k][j]='\0';
    //for(i=0;i<=k;i++)printf("%s ",map[i]);
    //gets(src);
    //gets(dst);
    scanf("%s%s",src,dst);
    for(i=0;i<=k;i++){
        if(strcmp(map[i],src)==0){
            printf("%s",dst);
        }else printf("%s",map[i]);
        if(i!=k)printf(" ");
    }
    
    
    printf("\n");
       return 0;
}
